(dp0
S'afterwards'
p1
I89
sS'office'
p2
I42
sS'yellow'
p3
I17
sS'bedroom'
p4
I24
sS'go'
p5
I122
sS'jason'
p6
I128
sS'yes'
p7
I12
sS'milk'
p8
I20
sS'before'
p9
I83
sS'grabbed'
p10
I45
sS'fit'
p11
I155
sS'how'
p12
I25
sS'swan'
p13
I61
sS'than'
p14
I151
sS'to'
p15
I8
sS'does'
p16
I154
sS'east'
p17
I98
sS'rectangle'
p18
I5
sS'gave'
p19
I36
sS'then'
p20
I92
sS'evening'
p21
I85
sS'triangle'
p22
I1
sS'garden'
p23
I38
sS'get'
p24
I136
sS'they'
p25
I94
sS'not'
p26
I119
sS'bigger'
p27
I150
sS'gray'
p28
I65
sS'school'
p29
I76
sS'did'
p30
I113
sS'morning'
p31
I78
sS'discarded'
p32
I54
sS'this'
p33
I77
sS'she'
p34
I88
sS'went'
p35
I31
sS'where'
p36
I81
sS'square'
p37
I7
sS'who'
p38
I115
sS'tired'
p39
I138
sS'back'
p40
I32
sS'lion'
p41
I67
sS'are'
p42
I100
sS'picked'
p43
I52
sS'n'
p44
I126
sS'pajamas'
p45
I139
sS'blue'
p46
I6
sS'what'
p47
I70
sS'container'
p48
I149
sS'rhino'
p49
I59
sS'daniel'
p50
I39
sS'bernhard'
p51
I66
sS'above'
p52
I3
sS'got'
p53
I19
sS'emily'
p54
I108
sS'red'
p55
I15
sS'either'
p56
I141
sS'gertrude'
p57
I110
sS'after'
p58
I86
sS'jessica'
p59
I106
sS'do'
p60
I120
sS'suitcase'
p61
I144
sS'fred'
p62
I79
sS'winona'
p63
I104
sS'objects'
p64
I27
sS'put'
p65
I48
sS'kitchen'
p66
I44
sS'box'
p67
I147
sS'received'
p68
I116
sS'journeyed'
p69
I35
sS'of'
p70
I10
sS's'
p71
I124
sS'wolf'
p72
I111
sS'afternoon'
p73
I84
sS'w'
p74
I127
sS'or'
p75
I142
sS'south'
p76
I96
sS'chocolates'
p77
I152
sS'apple'
p78
I46
sS'jeff'
p79
I112
sS'color'
p80
I71
sS'julie'
p81
I75
sS'?'
p82
I156
sS'one'
p83
I29
sS'down'
p84
I49
sS'fits'
p85
I145
sS'right'
p86
I11
sS'.'
p87
I157
sS'sheep'
p88
I103
sS'bathroom'
p89
I33
sS'from'
p90
I123
sS'west'
p91
I97
sS'there'
p92
I21
sS'three'
p93
I56
sS'frog'
p94
I64
sS'why'
p95
I133
sS'cats'
p96
I105
sS'passed'
p97
I50
sS'travelled'
p98
I43
sS'john'
p99
I22
sS'was'
p100
I82
sS'mary'
p101
I18
sS'north'
p102
I95
sS'that'
p103
I87
sS'park'
p104
I80
sS'took'
p105
I40
sS'chocolate'
p106
I148
sS'carrying'
p107
I28
sS'e'
p108
I125
sS'mice'
p109
I102
sS'white'
p110
I62
sS'he'
p111
I90
sS'none'
p112
I37
sS'bored'
p113
I132
sS'julius'
p114
I57
sS'inside'
p115
I146
sS'bill'
p116
I72
sS'up'
p117
I53
sS'cat'
p118
I109
sS'will'
p119
I130
sS'below'
p120
I13
sS'greg'
p121
I63
sS'many'
p122
I26
sS'following'
p123
I91
sS'and'
p124
I93
sS'thirsty'
p125
I129
sS'cinema'
p126
I73
sS'is'
p127
I2
sS'moved'
p128
I23
sS'yann'
p129
I137
sS'sphere'
p130
I16
sS'dropped'
p131
I51
sS'in'
p132
I117
sS'mouse'
p133
I107
sS'pink'
p134
I4
sS'afraid'
p135
I101
sS'no'
p136
I14
sS'-'
p137
I158
sS'handed'
p138
I55
sS'antoine'
p139
I131
sS'brian'
p140
I60
sS'chest'
p141
I153
sS'you'
p142
I121
sS'lily'
p143
I68
sS'hallway'
p144
I41
sS'football'
p145
I34
sS'yesterday'
p146
I74
sS'two'
p147
I47
sS'sandra'
p148
I30
sS'nothing'
p149
I140
sS'wolves'
p150
I99
sS'a'
p151
I58
sS'give'
p152
I114
sS'longer'
p153
I118
sS'maybe'
p154
I143
sS'hungry'
p155
I135
sS'sumit'
p156
I134
sS'green'
p157
I69
sS'the'
p158
I0
sS'left'
p159
I9
s.