(dp0
S'apple'
p1
I20
sS'office'
p2
I21
sS'moved'
p3
I6
sS'back'
p4
I11
sS'down'
p5
I23
sS'dropped'
p6
I33
sS'picked'
p7
I31
sS'bedroom'
p8
I8
sS'milk'
p9
I3
sS'before'
p10
I27
sS'bathroom'
p11
I28
sS'grabbed'
p12
I19
sS'there'
p13
I4
sS'-'
p14
I36
sS'.'
p15
I35
sS'to'
p16
I7
sS'daniel'
p17
I29
sS'got'
p18
I1
sS'travelled'
p19
I13
sS'john'
p20
I5
sS'was'
p21
I26
sS'mary'
p22
I0
sS'?'
p23
I34
sS'hallway'
p24
I14
sS'garden'
p25
I15
sS'football'
p26
I18
sS'took'
p27
I30
sS'sandra'
p28
I9
sS'put'
p29
I22
sS'the'
p30
I2
sS'kitchen'
p31
I12
sS'journeyed'
p32
I17
sS'up'
p33
I32
sS'discarded'
p34
I24
sS'went'
p35
I10
sS'where'
p36
I25
sS'left'
p37
I16
s.